(lp0
(V              omg its already 7:30 :O
p1
S'pos'
p2
tp3
a(V       Juuuuuuuuuuuuuuuuussssst Chillin!!
p4
g2
tp5
a(V      handed in my uniform today . i miss you already
p6
g2
tp7
a(V      hmmmm.... i wonder how she my number @-)
p8
g2
tp9
a(V      thanks to all the haters up in my face all day! 112-102
p10
g2
tp11
a(V    Feeling strangely fine. Now I'm gonna go listen to some Semisonic to celebrate
p12
g2
tp13
a(V    You're the only one who can see this cause no one else is following me this is for you because you're pretty awesome
p14
g2
tp15
a(V   goodbye exams, HELLO ALCOHOL TONIGHT 
p16
g2
tp17
a(V   uploading pictures on friendster 
p18
g2
tp19
a(V  (: !!!!!! - so i wrote something last week. and i got a call from someone in the new york office... http://tumblr.com/xcn21w6o7
p20
g2
tp21
a(V  ... Do I need to even say it?  Do I?  Well, here I go anyways:  CHRIS CORNELL IN CHICAGO!  ... TONIGHT!    
p22
g2
tp23
a(V  ... health class (what a joke!)
p24
g2
tp25
a(V  @ginaaa &lt;3 GO TO THE SHOW TONIGHT
p26
g2
tp27
a(V  bathroom is clean..... now on to more enjoyable tasks......
p28
g2
tp29
a(V  boom boom pow
p30
g2
tp31
a(V                     is so sad for my APL friend.............
p32
S'neg'
p33
tp34
a(V                   I missed the New Moon trailer...
p35
g33
tp36
a(V          .. Omgaga. Im sooo  im gunna CRy. I've been at this dentist since 11.. I was suposed 2 just get a crown put on (30mins)...
p37
g33
tp38
a(V         i think mi bf is cheating on me!!!       T_T
p39
g33
tp40
a(V         or i just worry too much?        
p41
g33
tp42
a(V       Sunny Again        Work Tomorrow  :-|       TV Tonight
p43
g33
tp44
a(V      I must think about positive..
p45
g33
tp46
a(V      this weekend has sucked so far
p47
g33
tp48
a(V     jb isnt showing in australia any more!
p49
g33
tp50
a(V     ok thats it you win.
p51
g33
tp52
a(V    &lt;-------- This is the way i feel right now...
p53
g33
tp54
a(V    awhhe man.... I'm completely useless rt now. Funny, all I can do is twitter. http://myloc.me/27HX
p55
g33
tp56
a(V    HUGE roll of thunder just now...SO scary!!!!
p57
g33
tp58
a(V    I just cut my beard off. It's only been growing for well over a year. I'm gonna start it over. @shaunamanu is happy in the meantime.
p59
g33
tp60
a.