(lp0
((dp1
Vfeel
p2
I00
sV@
p3
I00
sValready
p4
I01
sVwell
p5
I00
sVjust
p6
I00
sS'pos'
p7
tp8
a((dp9
g2
I00
sg3
I00
sg4
I00
sg5
I00
sg6
I00
sg7
tp10
a((dp11
g2
I00
sg3
I00
sg4
I01
sg5
I00
sg6
I00
sg7
tp12
a((dp13
g2
I00
sg3
I01
sg4
I00
sg5
I00
sg6
I00
sg7
tp14
a((dp15
g2
I00
sg3
I00
sg4
I00
sg5
I00
sg6
I00
sg7
tp16
a((dp17
g2
I00
sg3
I00
sg4
I00
sg5
I00
sg6
I00
sg7
tp18
a((dp19
g2
I00
sg3
I00
sg4
I00
sg5
I00
sg6
I00
sg7
tp20
a((dp21
g2
I00
sg3
I00
sg4
I00
sg5
I00
sg6
I00
sg7
tp22
a((dp23
g2
I00
sg3
I00
sg4
I00
sg5
I00
sg6
I00
sg7
tp24
a((dp25
g2
I00
sg3
I00
sg4
I00
sg5
I00
sg6
I00
sg7
tp26
a((dp27
g2
I00
sg3
I00
sg4
I00
sg5
I00
sg6
I00
sg7
tp28
a((dp29
g2
I00
sg3
I00
sg4
I00
sg5
I00
sg6
I00
sg7
tp30
a((dp31
g2
I00
sg3
I01
sg4
I00
sg5
I00
sg6
I00
sg7
tp32
a((dp33
g2
I00
sg3
I00
sg4
I00
sg5
I00
sg6
I00
sg7
tp34
a((dp35
g2
I00
sg3
I00
sg4
I00
sg5
I00
sg6
I00
sg7
tp36
a((dp37
g2
I00
sg3
I00
sg4
I00
sg5
I00
sg6
I00
sS'neg'
p38
tp39
a((dp40
g2
I00
sg3
I00
sg4
I00
sg5
I00
sg6
I00
sg38
tp41
a((dp42
g2
I00
sg3
I00
sg4
I00
sg5
I00
sg6
I01
sg38
tp43
a((dp44
g2
I00
sg3
I00
sg4
I00
sg5
I00
sg6
I00
sg38
tp45
a((dp46
g2
I00
sg3
I00
sg4
I00
sg5
I00
sg6
I01
sg38
tp47
a((dp48
g2
I00
sg3
I00
sg4
I00
sg5
I00
sg6
I00
sg38
tp49
a((dp50
g2
I00
sg3
I00
sg4
I00
sg5
I00
sg6
I00
sg38
tp51
a((dp52
g2
I00
sg3
I00
sg4
I00
sg5
I00
sg6
I00
sg38
tp53
a((dp54
g2
I00
sg3
I00
sg4
I00
sg5
I00
sg6
I00
sg38
tp55
a((dp56
g2
I00
sg3
I00
sg4
I00
sg5
I00
sg6
I00
sg38
tp57
a((dp58
g2
I01
sg3
I00
sg4
I00
sg5
I00
sg6
I00
sg38
tp59
a((dp60
g2
I00
sg3
I00
sg4
I00
sg5
I00
sg6
I00
sg38
tp61
a((dp62
g2
I00
sg3
I00
sg4
I00
sg5
I00
sg6
I01
sg38
tp63
a((dp64
g2
I00
sg3
I01
sg4
I00
sg5
I01
sg6
I01
sg38
tp65
a.