ccopy_reg
_reconstructor
p0
(cnltk.classify.scikitlearn
SklearnClassifier
p1
c__builtin__
object
p2
Ntp3
Rp4
(dp5
S'_clf'
p6
g0
(csklearn.svm.classes
LinearSVC
p7
g2
Ntp8
Rp9
(dp10
S'loss'
p11
S'squared_hinge'
p12
sS'C'
p13
F1.0
sS'classes_'
p14
cnumpy.core.multiarray
_reconstruct
p15
(cnumpy
ndarray
p16
(I0
tp17
S'b'
p18
tp19
Rp20
(I1
(L2L
tp21
cnumpy
dtype
p22
(S'i8'
p23
I0
I1
tp24
Rp25
(I3
S'<'
p26
NNNI-1
I-1
I0
tp27
bI00
S'\x00\x00\x00\x00\x00\x00\x00\x00\x01\x00\x00\x00\x00\x00\x00\x00'
p28
tp29
bsS'verbose'
p30
I0
sS'intercept_scaling'
p31
I1
sS'dual'
p32
I01
sS'fit_intercept'
p33
I01
sS'max_iter'
p34
I1000
sS'n_iter_'
p35
cnumpy.core.multiarray
scalar
p36
(g22
(S'i4'
p37
I0
I1
tp38
Rp39
(I3
S'<'
p40
NNNI-1
I-1
I0
tp41
bS'$\x00\x00\x00'
p42
tp43
Rp44
sS'penalty'
p45
S'l2'
p46
sS'multi_class'
p47
S'ovr'
p48
sS'random_state'
p49
NsS'tol'
p50
F0.0001
sS'coef_'
p51
g15
(g16
(I0
tp52
g18
tp53
Rp54
(I1
(L1L
L5L
tp55
g22
(S'f8'
p56
I0
I1
tp57
Rp58
(I3
S'<'
p59
NNNI-1
I-1
I0
tp60
bI01
S"\x08G\t\xed\xebq\xd7?\x14[\xdbB\xb1\xd1\xe5?\xbcB1B\xea{\xe8\xbf'1\xd1\xe1%a\xe3\xbf'1\xd1\xe1%a\xe3\xbf"
p61
tp62
bsS'intercept_'
p63
g15
(g16
(I0
tp64
g18
tp65
Rp66
(I1
(L1L
tp67
g58
I00
S'\x99\xc8Au\xf0\xe7\xc2?'
p68
tp69
bsS'class_weight'
p70
NsbsS'_encoder'
p71
g0
(csklearn.preprocessing.label
LabelEncoder
p72
g2
Ntp73
Rp74
(dp75
g14
g15
(g16
(I0
tp76
g18
tp77
Rp78
(I1
(L2L
tp79
g22
(S'S3'
p80
I0
I1
tp81
Rp82
(I3
S'|'
p83
NNNI3
I1
I0
tp84
bI00
S'negpos'
p85
tp86
bsbsS'_vectorizer'
p87
g0
(csklearn.feature_extraction.dict_vectorizer
DictVectorizer
p88
g2
Ntp89
Rp90
(dp91
S'sort'
p92
I01
sS'feature_names_'
p93
(lp94
V@
p95
aValready
p96
aVfeel
p97
aVjust
p98
aVwell
p99
asS'dtype'
p100
c__builtin__
float
p101
sS'vocabulary_'
p102
(dp103
g97
I2
sg95
I0
sg96
I1
sg99
I4
sg98
I3
ssS'separator'
p104
S'='
p105
sS'sparse'
p106
I01
sbsb.