ccopy_reg
_reconstructor
p0
(cnltk.classify.scikitlearn
SklearnClassifier
p1
c__builtin__
object
p2
Ntp3
Rp4
(dp5
S'_clf'
p6
g0
(csklearn.linear_model.logistic
LogisticRegression
p7
g2
Ntp8
Rp9
(dp10
S'warm_start'
p11
I00
sS'C'
p12
F1.0
sS'max_iter'
p13
I100
sS'verbose'
p14
I0
sS'intercept_scaling'
p15
I1
sS'dual'
p16
I00
sS'fit_intercept'
p17
I01
sS'classes_'
p18
cnumpy.core.multiarray
_reconstruct
p19
(cnumpy
ndarray
p20
(I0
tp21
S'b'
p22
tp23
Rp24
(I1
(L2L
tp25
cnumpy
dtype
p26
(S'i8'
p27
I0
I1
tp28
Rp29
(I3
S'<'
p30
NNNI-1
I-1
I0
tp31
bI00
S'\x00\x00\x00\x00\x00\x00\x00\x00\x01\x00\x00\x00\x00\x00\x00\x00'
p32
tp33
bsS'solver'
p34
S'liblinear'
p35
sS'n_iter_'
p36
g19
(g20
(I0
tp37
g22
tp38
Rp39
(I1
(L1L
tp40
g26
(S'i4'
p41
I0
I1
tp42
Rp43
(I3
S'<'
p44
NNNI-1
I-1
I0
tp45
bI00
S'\x04\x00\x00\x00'
p46
tp47
bsS'penalty'
p48
S'l2'
p49
sS'multi_class'
p50
S'ovr'
p51
sS'random_state'
p52
NsS'tol'
p53
F0.0001
sS'n_jobs'
p54
I1
sS'coef_'
p55
g19
(g20
(I0
tp56
g22
tp57
Rp58
(I1
(L1L
L5L
tp59
g26
(S'f8'
p60
I0
I1
tp61
Rp62
(I3
S'<'
p63
NNNI-1
I-1
I0
tp64
bI01
S'\x19\x08\xbe\x0e\xa47\xa4?\xbdm7RR\x0b\xe3?p\xf6x\x8b\xda\xfb\xdc\xbf\xf1\xdf\xa3\xce(\xa8\xd8\xbf\xf1\xdf\xa3\xce(\xa8\xd8\xbf'
p65
tp66
bsS'intercept_'
p67
g19
(g20
(I0
tp68
g22
tp69
Rp70
(I1
(L1L
tp71
g62
I00
S'Mv\xbd\x87\xf7\xe1\xd0?'
p72
tp73
bsS'class_weight'
p74
NsbsS'_encoder'
p75
g0
(csklearn.preprocessing.label
LabelEncoder
p76
g2
Ntp77
Rp78
(dp79
g18
g19
(g20
(I0
tp80
g22
tp81
Rp82
(I1
(L2L
tp83
g26
(S'S3'
p84
I0
I1
tp85
Rp86
(I3
S'|'
p87
NNNI3
I1
I0
tp88
bI00
S'negpos'
p89
tp90
bsbsS'_vectorizer'
p91
g0
(csklearn.feature_extraction.dict_vectorizer
DictVectorizer
p92
g2
Ntp93
Rp94
(dp95
S'sort'
p96
I01
sS'feature_names_'
p97
(lp98
V@
p99
aValready
p100
aVfeel
p101
aVjust
p102
aVwell
p103
asS'dtype'
p104
c__builtin__
float
p105
sS'vocabulary_'
p106
(dp107
g101
I2
sg99
I0
sg100
I1
sg103
I4
sg102
I3
ssS'separator'
p108
S'='
p109
sS'sparse'
p110
I01
sbsb.