ccopy_reg
_reconstructor
p0
(cnltk.classify.naivebayes
NaiveBayesClassifier
p1
c__builtin__
object
p2
Ntp3
Rp4
(dp5
S'_labels'
p6
(lp7
S'neg'
p8
aS'pos'
p9
asS'_feature_probdist'
p10
(dp11
(g9
V@
p12
tp13
g0
(cnltk.probability
ELEProbDist
p14
g2
Ntp15
Rp16
(dp17
S'_gamma'
p18
F0.5
sS'_N'
p19
I11
sS'_freqdist'
p20
cnltk.probability
FreqDist
p21
((dp22
I00
I10
sI01
I1
stp23
Rp24
sS'_bins'
p25
I2
sS'_divisor'
p26
F12.0
sbs(g9
Vwell
p27
tp28
g0
(g14
g2
Ntp29
Rp30
(dp31
g18
F0.5
sg19
I11
sg20
g21
((dp32
I00
I11
stp33
Rp34
sg25
I2
sg26
F12.0
sbs(g8
g12
tp35
g0
(g14
g2
Ntp36
Rp37
(dp38
g18
F0.5
sg19
I8
sg20
g21
((dp39
I00
I7
sI01
I1
stp40
Rp41
sg25
I2
sg26
F9.0
sbs(g9
Valready
p42
tp43
g0
(g14
g2
Ntp44
Rp45
(dp46
g18
F0.5
sg19
I11
sg20
g21
((dp47
I00
I9
sI01
I2
stp48
Rp49
sg25
I2
sg26
F12.0
sbs(g8
Vfeel
p50
tp51
g0
(g14
g2
Ntp52
Rp53
(dp54
g18
F0.5
sg19
I8
sg20
g21
((dp55
I00
I7
sI01
I1
stp56
Rp57
sg25
I2
sg26
F9.0
sbs(g8
g42
tp58
g0
(g14
g2
Ntp59
Rp60
(dp61
g18
F0.5
sg19
I8
sg20
g21
((dp62
I00
I8
stp63
Rp64
sg25
I2
sg26
F9.0
sbs(g9
Vjust
p65
tp66
g0
(g14
g2
Ntp67
Rp68
(dp69
g18
F0.5
sg19
I11
sg20
g21
((dp70
I00
I11
stp71
Rp72
sg25
I2
sg26
F12.0
sbs(g9
g50
tp73
g0
(g14
g2
Ntp74
Rp75
(dp76
g18
F0.5
sg19
I11
sg20
g21
((dp77
I00
I11
stp78
Rp79
sg25
I2
sg26
F12.0
sbs(g8
g65
tp80
g0
(g14
g2
Ntp81
Rp82
(dp83
g18
F0.5
sg19
I8
sg20
g21
((dp84
I00
I7
sI01
I1
stp85
Rp86
sg25
I2
sg26
F9.0
sbs(g8
g27
tp87
g0
(g14
g2
Ntp88
Rp89
(dp90
g18
F0.5
sg19
I8
sg20
g21
((dp91
I00
I7
sI01
I1
stp92
Rp93
sg25
I2
sg26
F9.0
sbssS'_label_probdist'
p94
g0
(g14
g2
Ntp95
Rp96
(dp97
g18
F0.5
sg19
I19
sg20
g21
((dp98
g8
I8
sg9
I11
stp99
Rp100
sg25
I2
sg26
F20.0
sbsb.