ccopy_reg
_reconstructor
p0
(cnltk.classify.scikitlearn
SklearnClassifier
p1
c__builtin__
object
p2
Ntp3
Rp4
(dp5
S'_clf'
p6
g0
(csklearn.linear_model.stochastic_gradient
SGDClassifier
p7
g2
Ntp8
Rp9
(dp10
S't_'
p11
F96.0
sS'n_jobs'
p12
I1
sS'shuffle'
p13
I01
sS'verbose'
p14
I0
sS'classes_'
p15
cnumpy.core.multiarray
_reconstruct
p16
(cnumpy
ndarray
p17
(I0
tp18
S'b'
p19
tp20
Rp21
(I1
(L2L
tp22
cnumpy
dtype
p23
(S'i8'
p24
I0
I1
tp25
Rp26
(I3
S'<'
p27
NNNI-1
I-1
I0
tp28
bI00
S'\x00\x00\x00\x00\x00\x00\x00\x00\x01\x00\x00\x00\x00\x00\x00\x00'
p29
tp30
bsS'class_weight'
p31
NsS'fit_intercept'
p32
I01
sS'penalty'
p33
S'l2'
p34
sS'random_state'
p35
NsS'loss_function'
p36
csklearn.linear_model.sgd_fast
Hinge
p37
(F1.0
tp38
Rp39
sS'C'
p40
F1.0
sS'n_iter'
p41
I5
sS'epsilon'
p42
F0.1
sS'learning_rate'
p43
S'optimal'
p44
sS'coef_'
p45
g16
(g17
(I0
tp46
g19
tp47
Rp48
(I1
(L1L
L5L
tp49
g23
(S'f8'
p50
I0
I1
tp51
Rp52
(I3
S'<'
p53
NNNI-1
I-1
I0
tp54
bI00
S'\xed\x16e\xb8\x12H"@\xeb\x16e\xb8\x12H"@\xeb\x16e\xb8\x12H"\xc0\xea\x16e\xb8\x12H"\xc0\xea\x16e\xb8\x12H"\xc0'
p55
tp56
bsS'alpha'
p57
F0.0001
sS'intercept_'
p58
g16
(g17
(I0
tp59
g19
tp60
Rp61
(I1
(L1L
tp62
g52
I00
S'h\x85\x16\xc5l\xda\xf0?'
p63
tp64
bsS'_expanded_class_weight'
p65
g16
(g17
(I0
tp66
g19
tp67
Rp68
(I1
(L2L
tp69
g52
I00
S'\x00\x00\x00\x00\x00\x00\xf0?\x00\x00\x00\x00\x00\x00\xf0?'
p70
tp71
bsS'warm_start'
p72
I00
sS'loss'
p73
S'hinge'
p74
sS'eta0'
p75
F0.0
sS'l1_ratio'
p76
F0.15
sS'average'
p77
I00
sS'power_t'
p78
F0.5
sbsS'_encoder'
p79
g0
(csklearn.preprocessing.label
LabelEncoder
p80
g2
Ntp81
Rp82
(dp83
g15
g16
(g17
(I0
tp84
g19
tp85
Rp86
(I1
(L2L
tp87
g23
(S'S3'
p88
I0
I1
tp89
Rp90
(I3
S'|'
p91
NNNI3
I1
I0
tp92
bI00
S'negpos'
p93
tp94
bsbsS'_vectorizer'
p95
g0
(csklearn.feature_extraction.dict_vectorizer
DictVectorizer
p96
g2
Ntp97
Rp98
(dp99
S'sort'
p100
I01
sS'feature_names_'
p101
(lp102
V@
p103
aValready
p104
aVfeel
p105
aVjust
p106
aVwell
p107
asS'dtype'
p108
c__builtin__
float
p109
sS'vocabulary_'
p110
(dp111
g105
I2
sg103
I0
sg104
I1
sg107
I4
sg106
I3
ssS'separator'
p112
S'='
p113
sS'sparse'
p114
I01
sbsb.